; ModuleID = 'bench/linux/original/tracepoint.ll'
source_filename = "bench/linux/original/tracepoint.ll"
target datalayout = "e-m:e-p270:32:32-p271:32:32-p272:64:64-i64:64-i128:128-f80:128-n8:16:32:64-S128"
target triple = "x86_64-unknown-linux-gnu"

%struct.static_key_false = type { %struct.static_key }
%struct.static_key = type { %struct.atomic_t, %union.anon }
%struct.atomic_t = type { i32 }
%union.anon = type { i64 }

@trace_pagefault_key = dso_local global %struct.static_key_false zeroinitializer, align 8

; Function Attrs: fn_ret_thunk_extern nounwind null_pointer_is_valid
define dso_local noundef i32 @trace_pagefault_reg() local_unnamed_addr #0 align 16 {
  %1 = tail call zeroext i1 @static_key_slow_inc(ptr noundef nonnull @trace_pagefault_key) #2
  ret i32 0
}

; Function Attrs: null_pointer_is_valid
declare dso_local zeroext i1 @static_key_slow_inc(ptr noundef) local_unnamed_addr #1

; Function Attrs: fn_ret_thunk_extern nounwind null_pointer_is_valid
define dso_local void @trace_pagefault_unreg() local_unnamed_addr #0 align 16 {
  tail call void @static_key_slow_dec(ptr noundef nonnull @trace_pagefault_key) #2
  ret void
}

; Function Attrs: null_pointer_is_valid
declare dso_local void @static_key_slow_dec(ptr noundef) local_unnamed_addr #1


!llvm.module.flags = !{!0, !1, !2, !3, !4}

!0 = !{i32 1, !"wchar_size", i32 2}
!1 = !{i32 8, !"cf-protection-branch", i32 1}
!2 = !{i32 4, !"function_return_thunk_extern", i32 1}
!3 = !{i32 4, !"indirect_branch_cs_prefix", i32 1}
!4 = !{i32 4, !"SkipRaxSetup", i32 1}
